target datalayout = "e-m:e-p270:32:32-p271:32:32-p272:64:64-i64:64-i128:128-f80:128-n8:16:32:64-S128"
target triple = "x86_64-pc-linux-gnu"

%"class.glslang::TQualifier" = type <{ ptr, i64, i8, [3 x i8], i32, i32, i64, i64, i8, i8, i8, i8, i8, [3 x i8], i32, i8, i8, i8, i8, i32, ptr, i8, i8, [6 x i8] }>

; Function Attrs: mustprogress nounwind uwtable
define void @_ZN7glslang16HlslParseContext15mergeQualifiersERNS_10TQualifierERKS1_(ptr noundef nonnull align 8 dereferenceable(2489) %0, ptr noundef nonnull align 8 dereferenceable(80) %1, ptr noundef nonnull align 8 dereferenceable(80) %2) #0 align 2 {
  %4 = alloca ptr, align 8
  %5 = alloca ptr, align 8
  %6 = alloca ptr, align 8
  store ptr %0, ptr %4, align 8
  store ptr %1, ptr %5, align 8
  store ptr %2, ptr %6, align 8
  %7 = load ptr, ptr %4, align 8
  %8 = load ptr, ptr %5, align 8
  %9 = getelementptr inbounds %"class.glslang::TQualifier", ptr %8, i32 0, i32 1
  %10 = load i64, ptr %9, align 8
  %11 = and i64 %10, 127
  %12 = trunc i64 %11 to i32
  %13 = icmp eq i32 %12, 0
  br i1 %13, label %21, label %14

14:                                               ; preds = %3
  %15 = load ptr, ptr %5, align 8
  %16 = getelementptr inbounds %"class.glslang::TQualifier", ptr %15, i32 0, i32 1
  %17 = load i64, ptr %16, align 8
  %18 = and i64 %17, 127
  %19 = trunc i64 %18 to i32
  %20 = icmp eq i32 %19, 1
  br i1 %20, label %21, label %34

21:                                               ; preds = %14, %3
  %22 = load ptr, ptr %6, align 8
  %23 = getelementptr inbounds %"class.glslang::TQualifier", ptr %22, i32 0, i32 1
  %24 = load i64, ptr %23, align 8
  %25 = and i64 %24, 127
  %26 = trunc i64 %25 to i32
  %27 = load ptr, ptr %5, align 8
  %28 = getelementptr inbounds %"class.glslang::TQualifier", ptr %27, i32 0, i32 1
  %29 = zext i32 %26 to i64
  %30 = load i64, ptr %28, align 8
  %31 = and i64 %29, 127
  %32 = and i64 %30, -128
  %33 = or i64 %32, %31
  store i64 %33, ptr %28, align 8
  br label %104

34:                                               ; preds = %14
  %35 = load ptr, ptr %5, align 8
  %36 = getelementptr inbounds %"class.glslang::TQualifier", ptr %35, i32 0, i32 1
  %37 = load i64, ptr %36, align 8
  %38 = and i64 %37, 127
  %39 = trunc i64 %38 to i32
  %40 = icmp eq i32 %39, 16
  br i1 %40, label %41, label %48

41:                                               ; preds = %34
  %42 = load ptr, ptr %6, align 8
  %43 = getelementptr inbounds %"class.glslang::TQualifier", ptr %42, i32 0, i32 1
  %44 = load i64, ptr %43, align 8
  %45 = and i64 %44, 127
  %46 = trunc i64 %45 to i32
  %47 = icmp eq i32 %46, 17
  br i1 %47, label %62, label %48

48:                                               ; preds = %41, %34
  %49 = load ptr, ptr %5, align 8
  %50 = getelementptr inbounds %"class.glslang::TQualifier", ptr %49, i32 0, i32 1
  %51 = load i64, ptr %50, align 8
  %52 = and i64 %51, 127
  %53 = trunc i64 %52 to i32
  %54 = icmp eq i32 %53, 17
  br i1 %54, label %55, label %68

55:                                               ; preds = %48
  %56 = load ptr, ptr %6, align 8
  %57 = getelementptr inbounds %"class.glslang::TQualifier", ptr %56, i32 0, i32 1
  %58 = load i64, ptr %57, align 8
  %59 = and i64 %58, 127
  %60 = trunc i64 %59 to i32
  %61 = icmp eq i32 %60, 16
  br i1 %61, label %62, label %68

62:                                               ; preds = %55, %41
  %63 = load ptr, ptr %5, align 8
  %64 = getelementptr inbounds %"class.glslang::TQualifier", ptr %63, i32 0, i32 1
  %65 = load i64, ptr %64, align 8
  %66 = and i64 %65, -128
  %67 = or i64 %66, 18
  store i64 %67, ptr %64, align 8
  br label %103

68:                                               ; preds = %55, %48
  %69 = load ptr, ptr %5, align 8
  %70 = getelementptr inbounds %"class.glslang::TQualifier", ptr %69, i32 0, i32 1
  %71 = load i64, ptr %70, align 8
  %72 = and i64 %71, 127
  %73 = trunc i64 %72 to i32
  %74 = icmp eq i32 %73, 16
  br i1 %74, label %75, label %82

75:                                               ; preds = %68
  %76 = load ptr, ptr %6, align 8
  %77 = getelementptr inbounds %"class.glslang::TQualifier", ptr %76, i32 0, i32 1
  %78 = load i64, ptr %77, align 8
  %79 = and i64 %78, 127
  %80 = trunc i64 %79 to i32
  %81 = icmp eq i32 %80, 2
  br i1 %81, label %96, label %82

82:                                               ; preds = %75, %68
  %83 = load ptr, ptr %5, align 8
  %84 = getelementptr inbounds %"class.glslang::TQualifier", ptr %83, i32 0, i32 1
  %85 = load i64, ptr %84, align 8
  %86 = and i64 %85, 127
  %87 = trunc i64 %86 to i32
  %88 = icmp eq i32 %87, 2
  br i1 %88, label %89, label %102

89:                                               ; preds = %82
  %90 = load ptr, ptr %6, align 8
  %91 = getelementptr inbounds %"class.glslang::TQualifier", ptr %90, i32 0, i32 1
  %92 = load i64, ptr %91, align 8
  %93 = and i64 %92, 127
  %94 = trunc i64 %93 to i32
  %95 = icmp eq i32 %94, 16
  br i1 %95, label %96, label %102

96:                                               ; preds = %89, %75
  %97 = load ptr, ptr %5, align 8
  %98 = getelementptr inbounds %"class.glslang::TQualifier", ptr %97, i32 0, i32 1
  %99 = load i64, ptr %98, align 8
  %100 = and i64 %99, -128
  %101 = or i64 %100, 19
  store i64 %101, ptr %98, align 8
  br label %102

102:                                              ; preds = %96, %89, %82
  br label %103

103:                                              ; preds = %102, %62
  br label %104

104:                                              ; preds = %103, %21
  %105 = load ptr, ptr %5, align 8
  %106 = load ptr, ptr %6, align 8
  call void @_ZN7glslang16HlslParseContext27mergeObjectLayoutQualifiersERNS_10TQualifierERKS1_b(ptr noundef nonnull align 8 dereferenceable(2489) %7, ptr noundef nonnull align 8 dereferenceable(80) %105, ptr noundef nonnull align 8 dereferenceable(80) %106, i1 noundef zeroext false)
  %107 = load ptr, ptr %6, align 8
  %108 = getelementptr inbounds %"class.glslang::TQualifier", ptr %107, i32 0, i32 1
  %109 = load i64, ptr %108, align 8
  %110 = lshr i64 %109, 28
  %111 = and i64 %110, 1
  %112 = trunc i64 %111 to i1
  %113 = zext i1 %112 to i32
  %114 = load ptr, ptr %5, align 8
  %115 = getelementptr inbounds %"class.glslang::TQualifier", ptr %114, i32 0, i32 1
  %116 = load i64, ptr %115, align 8
  %117 = lshr i64 %116, 28
  %118 = and i64 %117, 1
  %119 = trunc i64 %118 to i1
  %120 = zext i1 %119 to i32
  %121 = or i32 %120, %113
  %122 = icmp ne i32 %121, 0
  %123 = zext i1 %122 to i64
  %124 = load i64, ptr %115, align 8
  %125 = shl i64 %123, 28
  %126 = and i64 %124, -268435457
  %127 = or i64 %126, %125
  store i64 %127, ptr %115, align 8
  %128 = load ptr, ptr %6, align 8
  %129 = getelementptr inbounds %"class.glslang::TQualifier", ptr %128, i32 0, i32 1
  %130 = load i64, ptr %129, align 8
  %131 = lshr i64 %130, 36
  %132 = and i64 %131, 1
  %133 = trunc i64 %132 to i1
  %134 = zext i1 %133 to i32
  %135 = load ptr, ptr %5, align 8
  %136 = getelementptr inbounds %"class.glslang::TQualifier", ptr %135, i32 0, i32 1
  %137 = load i64, ptr %136, align 8
  %138 = lshr i64 %137, 36
  %139 = and i64 %138, 1
  %140 = trunc i64 %139 to i1
  %141 = zext i1 %140 to i32
  %142 = or i32 %141, %134
  %143 = icmp ne i32 %142, 0
  %144 = zext i1 %143 to i64
  %145 = load i64, ptr %136, align 8
  %146 = shl i64 %144, 36
  %147 = and i64 %145, -68719476737
  %148 = or i64 %147, %146
  store i64 %148, ptr %136, align 8
  %149 = load ptr, ptr %6, align 8
  %150 = getelementptr inbounds %"class.glslang::TQualifier", ptr %149, i32 0, i32 1
  %151 = load i64, ptr %150, align 8
  %152 = lshr i64 %151, 29
  %153 = and i64 %152, 1
  %154 = trunc i64 %153 to i1
  %155 = zext i1 %154 to i32
  %156 = load ptr, ptr %5, align 8
  %157 = getelementptr inbounds %"class.glslang::TQualifier", ptr %156, i32 0, i32 1
  %158 = load i64, ptr %157, align 8
  %159 = lshr i64 %158, 29
  %160 = and i64 %159, 1
  %161 = trunc i64 %160 to i1
  %162 = zext i1 %161 to i32
  %163 = or i32 %162, %155
  %164 = icmp ne i32 %163, 0
  %165 = zext i1 %164 to i64
  %166 = load i64, ptr %157, align 8
  %167 = shl i64 %165, 29
  %168 = and i64 %166, -536870913
  %169 = or i64 %168, %167
  store i64 %169, ptr %157, align 8
  %170 = load ptr, ptr %6, align 8
  %171 = getelementptr inbounds %"class.glslang::TQualifier", ptr %170, i32 0, i32 1
  %172 = load i64, ptr %171, align 8
  %173 = lshr i64 %172, 30
  %174 = and i64 %173, 1
  %175 = trunc i64 %174 to i1
  %176 = zext i1 %175 to i32
  %177 = load ptr, ptr %5, align 8
  %178 = getelementptr inbounds %"class.glslang::TQualifier", ptr %177, i32 0, i32 1
  %179 = load i64, ptr %178, align 8
  %180 = lshr i64 %179, 30
  %181 = and i64 %180, 1
  %182 = trunc i64 %181 to i1
  %183 = zext i1 %182 to i32
  %184 = or i32 %183, %176
  %185 = icmp ne i32 %184, 0
  %186 = zext i1 %185 to i64
  %187 = load i64, ptr %178, align 8
  %188 = shl i64 %186, 30
  %189 = and i64 %187, -1073741825
  %190 = or i64 %189, %188
  store i64 %190, ptr %178, align 8
  %191 = load ptr, ptr %6, align 8
  %192 = getelementptr inbounds %"class.glslang::TQualifier", ptr %191, i32 0, i32 1
  %193 = load i64, ptr %192, align 8
  %194 = lshr i64 %193, 31
  %195 = and i64 %194, 1
  %196 = trunc i64 %195 to i1
  %197 = zext i1 %196 to i32
  %198 = load ptr, ptr %5, align 8
  %199 = getelementptr inbounds %"class.glslang::TQualifier", ptr %198, i32 0, i32 1
  %200 = load i64, ptr %199, align 8
  %201 = lshr i64 %200, 31
  %202 = and i64 %201, 1
  %203 = trunc i64 %202 to i1
  %204 = zext i1 %203 to i32
  %205 = or i32 %204, %197
  %206 = icmp ne i32 %205, 0
  %207 = zext i1 %206 to i64
  %208 = load i64, ptr %199, align 8
  %209 = shl i64 %207, 31
  %210 = and i64 %208, -2147483649
  %211 = or i64 %210, %209
  store i64 %211, ptr %199, align 8
  %212 = load ptr, ptr %6, align 8
  %213 = getelementptr inbounds %"class.glslang::TQualifier", ptr %212, i32 0, i32 1
  %214 = load i64, ptr %213, align 8
  %215 = lshr i64 %214, 37
  %216 = and i64 %215, 1
  %217 = trunc i64 %216 to i1
  %218 = zext i1 %217 to i32
  %219 = load ptr, ptr %5, align 8
  %220 = getelementptr inbounds %"class.glslang::TQualifier", ptr %219, i32 0, i32 1
  %221 = load i64, ptr %220, align 8
  %222 = lshr i64 %221, 37
  %223 = and i64 %222, 1
  %224 = trunc i64 %223 to i1
  %225 = zext i1 %224 to i32
  %226 = or i32 %225, %218
  %227 = icmp ne i32 %226, 0
  %228 = zext i1 %227 to i64
  %229 = load i64, ptr %220, align 8
  %230 = shl i64 %228, 37
  %231 = and i64 %229, -137438953473
  %232 = or i64 %231, %230
  store i64 %232, ptr %220, align 8
  %233 = load ptr, ptr %6, align 8
  %234 = getelementptr inbounds %"class.glslang::TQualifier", ptr %233, i32 0, i32 1
  %235 = load i64, ptr %234, align 8
  %236 = lshr i64 %235, 44
  %237 = and i64 %236, 1
  %238 = trunc i64 %237 to i1
  %239 = zext i1 %238 to i32
  %240 = load ptr, ptr %5, align 8
  %241 = getelementptr inbounds %"class.glslang::TQualifier", ptr %240, i32 0, i32 1
  %242 = load i64, ptr %241, align 8
  %243 = lshr i64 %242, 44
  %244 = and i64 %243, 1
  %245 = trunc i64 %244 to i1
  %246 = zext i1 %245 to i32
  %247 = or i32 %246, %239
  %248 = icmp ne i32 %247, 0
  %249 = zext i1 %248 to i64
  %250 = load i64, ptr %241, align 8
  %251 = shl i64 %249, 44
  %252 = and i64 %250, -17592186044417
  %253 = or i64 %252, %251
  store i64 %253, ptr %241, align 8
  %254 = load ptr, ptr %6, align 8
  %255 = getelementptr inbounds %"class.glslang::TQualifier", ptr %254, i32 0, i32 1
  %256 = load i64, ptr %255, align 8
  %257 = lshr i64 %256, 45
  %258 = and i64 %257, 1
  %259 = trunc i64 %258 to i1
  %260 = zext i1 %259 to i32
  %261 = load ptr, ptr %5, align 8
  %262 = getelementptr inbounds %"class.glslang::TQualifier", ptr %261, i32 0, i32 1
  %263 = load i64, ptr %262, align 8
  %264 = lshr i64 %263, 45
  %265 = and i64 %264, 1
  %266 = trunc i64 %265 to i1
  %267 = zext i1 %266 to i32
  %268 = or i32 %267, %260
  %269 = icmp ne i32 %268, 0
  %270 = zext i1 %269 to i64
  %271 = load i64, ptr %262, align 8
  %272 = shl i64 %270, 45
  %273 = and i64 %271, -35184372088833
  %274 = or i64 %273, %272
  store i64 %274, ptr %262, align 8
  %275 = load ptr, ptr %6, align 8
  %276 = getelementptr inbounds %"class.glslang::TQualifier", ptr %275, i32 0, i32 1
  %277 = load i64, ptr %276, align 8
  %278 = lshr i64 %277, 49
  %279 = and i64 %278, 1
  %280 = trunc i64 %279 to i1
  %281 = zext i1 %280 to i32
  %282 = load ptr, ptr %5, align 8
  %283 = getelementptr inbounds %"class.glslang::TQualifier", ptr %282, i32 0, i32 1
  %284 = load i64, ptr %283, align 8
  %285 = lshr i64 %284, 49
  %286 = and i64 %285, 1
  %287 = trunc i64 %286 to i1
  %288 = zext i1 %287 to i32
  %289 = or i32 %288, %281
  %290 = icmp ne i32 %289, 0
  %291 = zext i1 %290 to i64
  %292 = load i64, ptr %283, align 8
  %293 = shl i64 %291, 49
  %294 = and i64 %292, -562949953421313
  %295 = or i64 %294, %293
  store i64 %295, ptr %283, align 8
  %296 = load ptr, ptr %6, align 8
  %297 = getelementptr inbounds %"class.glslang::TQualifier", ptr %296, i32 0, i32 1
  %298 = load i64, ptr %297, align 8
  %299 = lshr i64 %298, 50
  %300 = and i64 %299, 1
  %301 = trunc i64 %300 to i1
  %302 = zext i1 %301 to i32
  %303 = load ptr, ptr %5, align 8
  %304 = getelementptr inbounds %"class.glslang::TQualifier", ptr %303, i32 0, i32 1
  %305 = load i64, ptr %304, align 8
  %306 = lshr i64 %305, 50
  %307 = and i64 %306, 1
  %308 = trunc i64 %307 to i1
  %309 = zext i1 %308 to i32
  %310 = or i32 %309, %302
  %311 = icmp ne i32 %310, 0
  %312 = zext i1 %311 to i64
  %313 = load i64, ptr %304, align 8
  %314 = shl i64 %312, 50
  %315 = and i64 %313, -1125899906842625
  %316 = or i64 %315, %314
  store i64 %316, ptr %304, align 8
  %317 = load ptr, ptr %6, align 8
  %318 = getelementptr inbounds %"class.glslang::TQualifier", ptr %317, i32 0, i32 1
  %319 = load i64, ptr %318, align 8
  %320 = lshr i64 %319, 46
  %321 = and i64 %320, 1
  %322 = trunc i64 %321 to i1
  %323 = zext i1 %322 to i32
  %324 = load ptr, ptr %5, align 8
  %325 = getelementptr inbounds %"class.glslang::TQualifier", ptr %324, i32 0, i32 1
  %326 = load i64, ptr %325, align 8
  %327 = lshr i64 %326, 46
  %328 = and i64 %327, 1
  %329 = trunc i64 %328 to i1
  %330 = zext i1 %329 to i32
  %331 = or i32 %330, %323
  %332 = icmp ne i32 %331, 0
  %333 = zext i1 %332 to i64
  %334 = load i64, ptr %325, align 8
  %335 = shl i64 %333, 46
  %336 = and i64 %334, -70368744177665
  %337 = or i64 %336, %335
  store i64 %337, ptr %325, align 8
  %338 = load ptr, ptr %6, align 8
  %339 = getelementptr inbounds %"class.glslang::TQualifier", ptr %338, i32 0, i32 1
  %340 = load i64, ptr %339, align 8
  %341 = lshr i64 %340, 47
  %342 = and i64 %341, 1
  %343 = trunc i64 %342 to i1
  %344 = zext i1 %343 to i32
  %345 = load ptr, ptr %5, align 8
  %346 = getelementptr inbounds %"class.glslang::TQualifier", ptr %345, i32 0, i32 1
  %347 = load i64, ptr %346, align 8
  %348 = lshr i64 %347, 47
  %349 = and i64 %348, 1
  %350 = trunc i64 %349 to i1
  %351 = zext i1 %350 to i32
  %352 = or i32 %351, %344
  %353 = icmp ne i32 %352, 0
  %354 = zext i1 %353 to i64
  %355 = load i64, ptr %346, align 8
  %356 = shl i64 %354, 47
  %357 = and i64 %355, -140737488355329
  %358 = or i64 %357, %356
  store i64 %358, ptr %346, align 8
  %359 = load ptr, ptr %6, align 8
  %360 = getelementptr inbounds %"class.glslang::TQualifier", ptr %359, i32 0, i32 1
  %361 = load i64, ptr %360, align 8
  %362 = lshr i64 %361, 48
  %363 = and i64 %362, 1
  %364 = trunc i64 %363 to i1
  %365 = zext i1 %364 to i32
  %366 = load ptr, ptr %5, align 8
  %367 = getelementptr inbounds %"class.glslang::TQualifier", ptr %366, i32 0, i32 1
  %368 = load i64, ptr %367, align 8
  %369 = lshr i64 %368, 48
  %370 = and i64 %369, 1
  %371 = trunc i64 %370 to i1
  %372 = zext i1 %371 to i32
  %373 = or i32 %372, %365
  %374 = icmp ne i32 %373, 0
  %375 = zext i1 %374 to i64
  %376 = load i64, ptr %367, align 8
  %377 = shl i64 %375, 48
  %378 = and i64 %376, -281474976710657
  %379 = or i64 %378, %377
  store i64 %379, ptr %367, align 8
  %380 = load ptr, ptr %6, align 8
  %381 = getelementptr inbounds %"class.glslang::TQualifier", ptr %380, i32 0, i32 1
  %382 = load i64, ptr %381, align 8
  %383 = lshr i64 %382, 32
  %384 = and i64 %383, 1
  %385 = trunc i64 %384 to i1
  %386 = zext i1 %385 to i32
  %387 = load ptr, ptr %5, align 8
  %388 = getelementptr inbounds %"class.glslang::TQualifier", ptr %387, i32 0, i32 1
  %389 = load i64, ptr %388, align 8
  %390 = lshr i64 %389, 32
  %391 = and i64 %390, 1
  %392 = trunc i64 %391 to i1
  %393 = zext i1 %392 to i32
  %394 = or i32 %393, %386
  %395 = icmp ne i32 %394, 0
  %396 = zext i1 %395 to i64
  %397 = load i64, ptr %388, align 8
  %398 = shl i64 %396, 32
  %399 = and i64 %397, -4294967297
  %400 = or i64 %399, %398
  store i64 %400, ptr %388, align 8
  %401 = load ptr, ptr %6, align 8
  %402 = getelementptr inbounds %"class.glslang::TQualifier", ptr %401, i32 0, i32 1
  %403 = load i64, ptr %402, align 8
  %404 = lshr i64 %403, 33
  %405 = and i64 %404, 1
  %406 = trunc i64 %405 to i1
  %407 = zext i1 %406 to i32
  %408 = load ptr, ptr %5, align 8
  %409 = getelementptr inbounds %"class.glslang::TQualifier", ptr %408, i32 0, i32 1
  %410 = load i64, ptr %409, align 8
  %411 = lshr i64 %410, 33
  %412 = and i64 %411, 1
  %413 = trunc i64 %412 to i1
  %414 = zext i1 %413 to i32
  %415 = or i32 %414, %407
  %416 = icmp ne i32 %415, 0
  %417 = zext i1 %416 to i64
  %418 = load i64, ptr %409, align 8
  %419 = shl i64 %417, 33
  %420 = and i64 %418, -8589934593
  %421 = or i64 %420, %419
  store i64 %421, ptr %409, align 8
  ret void
}