; Function Attrs: mustprogress nofree norecurse nosync nounwind willreturn memory(argmem: readwrite) uwtable
define void @_ZN7glslang16HlslParseContext15mergeQualifiersERNS_10TQualifierERKS1_(ptr nocapture noundef nonnull readnone align 8 dereferenceable(2489) %0, ptr nocapture noundef nonnull align 8 dereferenceable(80) %1, ptr nocapture noundef nonnull readonly align 8 dereferenceable(80) %2) local_unnamed_addr #5 align 2 {
  %4 = getelementptr inbounds i8, ptr %1, i64 8
  %5 = load i64, ptr %4, align 8
  %6 = trunc i64 %5 to i32
  %7 = and i32 %6, 127
  switch i32 %7, label %19 [
    i32 0, label %8
    i32 1, label %8
    i32 16, label %14
  ]

8:                                                ; preds = %3, %3
  %9 = getelementptr inbounds i8, ptr %2, i64 8
  %10 = load i64, ptr %9, align 8
  %11 = and i64 %10, 127
  %12 = and i64 %5, -128
  %13 = or disjoint i64 %11, %12
  br label %.thread84.sink.split

14:                                               ; preds = %3
  %15 = getelementptr inbounds i8, ptr %2, i64 8
  %16 = load i64, ptr %15, align 8
  %17 = and i64 %16, 127
  %18 = icmp eq i64 %17, 17
  br i1 %18, label %26, label %19

19:                                               ; preds = %3, %14
  %20 = and i64 %5, 127
  switch i64 %20, label %.thread84 [
    i64 17, label %21
    i64 16, label %29
    i64 2, label %34
  ]

21:                                               ; preds = %19
  %22 = getelementptr inbounds i8, ptr %2, i64 8
  %23 = load i64, ptr %22, align 8
  %24 = and i64 %23, 127
  %25 = icmp eq i64 %24, 16
  br i1 %25, label %26, label %.thread84

26:                                               ; preds = %21, %14
  %27 = and i64 %5, -128
  %28 = or disjoint i64 %27, 18
  br label %.thread84.sink.split

29:                                               ; preds = %19
  %30 = getelementptr inbounds i8, ptr %2, i64 8
  %31 = load i64, ptr %30, align 8
  %32 = and i64 %31, 127
  %33 = icmp eq i64 %32, 2
  br i1 %33, label %39, label %.thread84

34:                                               ; preds = %19
  %35 = getelementptr inbounds i8, ptr %2, i64 8
  %36 = load i64, ptr %35, align 8
  %37 = and i64 %36, 127
  %38 = icmp eq i64 %37, 16
  br i1 %38, label %39, label %.thread84

39:                                               ; preds = %34, %29
  %40 = and i64 %5, -128
  %41 = or disjoint i64 %40, 19
  br label %.thread84.sink.split

.thread84.sink.split:                             ; preds = %8, %39, %26
  %.sink = phi i64 [ %28, %26 ], [ %41, %39 ], [ %13, %8 ]
  store i64 %.sink, ptr %4, align 8
  br label %.thread84

.thread84:                                        ; preds = %.thread84.sink.split, %19, %21, %29, %34
  tail call void @_ZN7glslang16HlslParseContext27mergeObjectLayoutQualifiersERNS_10TQualifierERKS1_b(ptr nonnull align 8 poison, ptr noundef nonnull align 8 dereferenceable(80) %1, ptr noundef nonnull align 8 dereferenceable(80) %2, i1 noundef zeroext false)
  %42 = getelementptr inbounds i8, ptr %2, i64 8
  %43 = load i64, ptr %42, align 8
  %44 = load i64, ptr %4, align 8
  %45 = and i64 %43, 268435456
  %46 = or i64 %45, %44
  store i64 %46, ptr %4, align 8
  %47 = load i64, ptr %42, align 8
  %48 = or i64 %47, %44
  %.lobit = and i64 %48, 68719476736
  %49 = and i64 %46, -68719476737
  %50 = or disjoint i64 %.lobit, %49
  store i64 %50, ptr %4, align 8
  %51 = load i64, ptr %42, align 8
  %52 = or i64 %51, %44
  %.lobit49 = and i64 %52, 536870912
  %53 = and i64 %50, -536870913
  %54 = or disjoint i64 %53, %.lobit49
  store i64 %54, ptr %4, align 8
  %55 = load i64, ptr %42, align 8
  %56 = or i64 %55, %44
  %.lobit52 = and i64 %56, 1073741824
  %57 = and i64 %54, -1073741825
  %58 = or disjoint i64 %57, %.lobit52
  store i64 %58, ptr %4, align 8
  %59 = load i64, ptr %42, align 8
  %60 = or i64 %59, %44
  %.lobit53 = and i64 %60, 2147483648
  %61 = and i64 %58, -2147483649
  %62 = or disjoint i64 %61, %.lobit53
  store i64 %62, ptr %4, align 8
  %63 = load i64, ptr %42, align 8
  %64 = or i64 %63, %44
  %.lobit56 = and i64 %64, 137438953472
  %65 = and i64 %62, -137438953473
  %66 = or disjoint i64 %65, %.lobit56
  store i64 %66, ptr %4, align 8
  %67 = load i64, ptr %42, align 8
  %68 = or i64 %67, %44
  %.lobit59 = and i64 %68, 17592186044416
  %69 = and i64 %66, -17592186044417
  %70 = or disjoint i64 %69, %.lobit59
  store i64 %70, ptr %4, align 8
  %71 = load i64, ptr %42, align 8
  %72 = or i64 %71, %44
  %.lobit62 = and i64 %72, 35184372088832
  %73 = and i64 %70, -35184372088833
  %74 = or disjoint i64 %73, %.lobit62
  store i64 %74, ptr %4, align 8
  %75 = load i64, ptr %42, align 8
  %76 = or i64 %75, %44
  %.lobit65 = and i64 %76, 562949953421312
  %77 = and i64 %74, -562949953421313
  %78 = or disjoint i64 %77, %.lobit65
  store i64 %78, ptr %4, align 8
  %79 = load i64, ptr %42, align 8
  %80 = or i64 %79, %44
  %.lobit68 = and i64 %80, 1125899906842624
  %81 = and i64 %78, -1125899906842625
  %82 = or disjoint i64 %81, %.lobit68
  store i64 %82, ptr %4, align 8
  %83 = load i64, ptr %42, align 8
  %84 = or i64 %83, %44
  %.lobit71 = and i64 %84, 70368744177664
  %85 = and i64 %82, -70368744177665
  %86 = or disjoint i64 %85, %.lobit71
  store i64 %86, ptr %4, align 8
  %87 = load i64, ptr %42, align 8
  %88 = or i64 %87, %44
  %.lobit74 = and i64 %88, 140737488355328
  %89 = and i64 %86, -140737488355329
  %90 = or disjoint i64 %89, %.lobit74
  store i64 %90, ptr %4, align 8
  %91 = load i64, ptr %42, align 8
  %92 = or i64 %91, %44
  %.lobit77 = and i64 %92, 281474976710656
  %93 = and i64 %90, -281474976710657
  %94 = or disjoint i64 %93, %.lobit77
  store i64 %94, ptr %4, align 8
  %95 = load i64, ptr %42, align 8
  %96 = or i64 %95, %44
  %.lobit80 = and i64 %96, 4294967296
  %97 = and i64 %94, -4294967297
  %98 = or disjoint i64 %97, %.lobit80
  store i64 %98, ptr %4, align 8
  %99 = load i64, ptr %42, align 8
  %100 = or i64 %99, %44
  %.lobit83 = and i64 %100, 8589934592
  %101 = and i64 %98, -8589934593
  %102 = or disjoint i64 %101, %.lobit83
  store i64 %102, ptr %4, align 8
  ret void
}